Certificate:
    Data:
        Version: 1 (0x0)
        Serial Number: 1048577 (0x100001)
    Signature Algorithm: md5WithRSAEncryption
        Issuer: O=remsigTest, OU=testDep/emailAddress=tester1@ics.com, L=brno, ST=czechRepublik, C=cz, CN=greatTester
        Validity
            Not Before: Feb 16 11:50:22 2016 GMT
            Not After : Feb 15 11:50:22 2018 GMT
        Subject: C=cz, ST=czechRepublik, O=remsigTest, OU=testDep, CN=sub1
        Subject Public Key Info:
            Public Key Algorithm: rsaEncryption
                Public-Key: (4096 bit)
                Modulus:
                    00:d4:66:29:9e:bd:20:cf:3d:66:9a:5f:13:bc:32:
                    5b:bb:d0:ba:7e:7c:a5:be:0f:10:e4:0f:c5:22:c9:
                    fa:f6:f8:76:ec:41:6c:a1:82:4a:af:c6:e2:a6:9a:
                    a5:42:4b:bb:ce:19:e5:33:6c:ce:24:4e:9e:24:d8:
                    4a:6d:b8:fb:58:44:fc:33:21:7f:bd:ee:61:e5:35:
                    50:5d:6d:49:e7:04:6f:f6:a7:bb:6b:ba:37:ab:79:
                    a2:32:08:98:a2:39:5d:99:c6:21:e2:4e:09:86:85:
                    75:13:27:2d:a4:98:10:63:df:e2:dc:af:2f:03:ec:
                    73:57:72:0b:54:a7:e2:bf:ff:22:ab:3e:b1:7c:96:
                    8c:ad:7b:c9:97:c9:19:48:e8:a3:6e:d6:b9:2f:a2:
                    e4:30:66:a9:75:29:26:be:f6:db:63:fd:77:e8:9d:
                    82:64:01:a7:1c:2b:ad:2e:fb:43:da:e9:50:d0:e7:
                    50:1e:28:4f:48:5e:c0:a8:16:13:ac:08:fc:74:34:
                    0b:bb:78:30:08:4c:8b:7e:17:28:a9:be:57:eb:e6:
                    c1:cb:f0:62:6f:31:e5:1a:5c:47:cd:57:6a:86:96:
                    32:1d:c3:b6:5e:76:2c:e8:89:87:d2:4a:ce:cd:c6:
                    80:d9:06:55:27:57:dc:ea:27:c6:16:24:e1:81:85:
                    7f:fe:6e:3f:fd:b0:3f:c6:79:ef:03:f4:7e:3b:1a:
                    b7:c8:d5:dc:1f:78:07:c7:8f:05:3e:53:1c:91:2e:
                    34:ea:81:86:d0:86:47:76:7e:e3:92:ef:57:6c:2f:
                    2d:a3:1f:fc:3b:23:2d:a7:21:55:6f:c1:52:89:22:
                    83:00:9f:50:fa:68:7d:e5:54:44:f9:f9:fb:89:cd:
                    7f:4b:6e:6c:90:50:58:4d:cc:bc:75:14:a8:3a:3b:
                    90:a2:d6:41:b5:25:32:bd:c4:0a:64:2a:5f:5d:30:
                    49:4a:e0:c1:9d:4b:36:4d:9a:b8:e0:9a:3a:ea:70:
                    c9:94:a0:f9:b5:73:84:2f:5d:f4:e1:9c:10:89:84:
                    e1:53:e4:f8:a4:99:90:f2:52:a0:ae:b9:b5:7c:15:
                    15:5e:02:a2:bf:37:4a:ea:5e:21:e8:79:50:71:92:
                    d5:59:c9:5a:4b:c4:bf:a8:b7:96:c7:64:8a:ec:95:
                    3e:67:d7:58:25:ef:4d:f4:28:a1:b4:49:f5:f1:f4:
                    3c:9a:79:1d:c3:f1:d7:e9:5f:c7:38:8e:4d:13:57:
                    d7:22:ca:42:3c:69:7f:45:7d:3b:ad:b8:e4:68:08:
                    31:90:d0:41:43:5b:7a:10:04:89:94:3e:0d:81:76:
                    e2:99:23:a5:26:d8:00:5b:fe:02:1e:df:a1:51:11:
                    db:fe:49
                Exponent: 65537 (0x10001)
    Signature Algorithm: md5WithRSAEncryption
         0b:b3:fd:dc:f4:2e:36:91:b8:c5:59:a2:30:70:e9:c7:7b:24:
         a1:a3:16:c6:c9:f1:36:ce:7b:09:78:f1:3d:06:0d:3f:24:0f:
         07:77:44:72:32:26:f5:36:05:eb:47:58:06:28:1c:2a:71:ff:
         e5:9b:f9:a2:1b:83:93:78:b1:f7:12:68:b0:36:c2:7b:54:22:
         3b:0c:00:50:d8:de:68:49:b4:f0:65:c2:9b:89:0b:83:44:0a:
         da:ca:9f:8f:35:3a:22:1f:ce:68:e0:ad:fd:9a:86:af:27:1f:
         a7:48:b6:04:59:80:ad:43:c1:7b:8e:01:d8:64:00:7b:28:f3:
         fb:00:58:26:26:f9:a2:2b:af:e1:d9:c3:66:83:93:94:ec:a4:
         1c:3f:25:69:c4:1e:dd:9f:72:bc:af:f7:0c:53:32:f2:a2:1f:
         10:83:7b:8c:2c:1a:74:03:aa:9e:17:1d:44:6a:40:c8:08:d9:
         c6:a2:20:4f:cd:4d:f8:07:e8:09:75:5e:39:2d:1b:e8:40:25:
         d0:7b:6c:61:fd:9e:c5:f9:25:3b:40:56:45:b9:a3:41:8a:96:
         a8:2b:95:2b:0a:1a:c1:2f:bf:cc:df:cc:6c:66:33:e1:74:d9:
         90:05:1b:ff:17:0a:f6:94:24:9e:24:5f:89:3c:88:cd:26:db:
         6b:53:ad:c8:3f:86:39:4c:24:e4:ac:ed:c7:87:3c:3e:31:df:
         44:7f:f9:47:b6:d1:cc:e8:13:e6:06:1c:24:22:39:59:18:f6:
         82:05:1b:fc:aa:d0:36:56:e5:00:18:70:93:3c:2a:c1:2e:c1:
         ad:3d:4a:72:b4:8c:f4:76:f7:fe:7d:45:6a:49:b1:6f:06:c6:
         d5:d6:6a:26:e3:b6:38:dc:3d:32:1a:c3:61:6c:7f:1b:9c:93:
         3c:b5:4a:ea:6a:10:2e:39:51:eb:44:d2:1b:3f:ca:d9:c4:d4:
         de:ac:20:68:97:d7:83:ea:8e:63:ab:7b:13:a4:a3:4e:11:01:
         d0:94:60:ed:4b:80:7a:c1:7c:6b:fc:df:39:7c:87:18:27:2a:
         8d:98:f0:e0:3a:63:11:80:07:e5:b5:13:3c:3a:cd:f3:50:58:
         d1:5a:a0:db:19:12:fb:a9:84:7f:c2:84:28:3c:ab:e9:f7:eb:
         9f:e0:fc:77:35:a4:fe:9d:77:d9:c0:3c:a1:95:eb:e1:d3:2d:
         53:2e:f5:fa:d9:28:fd:e6:51:9d:56:b2:ad:90:d2:7e:27:b1:
         0d:ba:d9:1f:bd:e3:d0:59:58:21:ca:79:87:9a:c3:4d:79:b7:
         ff:d6:90:35:b1:61:c5:79:59:43:77:58:14:8b:b6:c1:3f:9a:
         d3:94:04:29:b0:e9:98:ff
-----BEGIN CERTIFICATE-----
MIIFYzCCA0sCAxAAATANBgkqhkiG9w0BAQQFADCBkTETMBEGA1UEChMKcmVtc2ln
VGVzdDEQMA4GA1UECxMHdGVzdERlcDEeMBwGCSqGSIb3DQEJARYPdGVzdGVyMUBp
Y3MuY29tMQ0wCwYDVQQHEwRicm5vMRYwFAYDVQQIEw1jemVjaFJlcHVibGlrMQsw
CQYDVQQGEwJjejEUMBIGA1UEAxMLZ3JlYXRUZXN0ZXIwHhcNMTYwMjE2MTE1MDIy
WhcNMTgwMjE1MTE1MDIyWjBbMQswCQYDVQQGEwJjejEWMBQGA1UECBMNY3plY2hS
ZXB1YmxpazETMBEGA1UEChMKcmVtc2lnVGVzdDEQMA4GA1UECxMHdGVzdERlcDEN
MAsGA1UEAxMEc3ViMTCCAiIwDQYJKoZIhvcNAQEBBQADggIPADCCAgoCggIBANRm
KZ69IM89ZppfE7wyW7vQun58pb4PEOQPxSLJ+vb4duxBbKGCSq/G4qaapUJLu84Z
5TNsziROniTYSm24+1hE/DMhf73uYeU1UF1tSecEb/anu2u6N6t5ojIImKI5XZnG
IeJOCYaFdRMnLaSYEGPf4tyvLwPsc1dyC1Sn4r//Iqs+sXyWjK17yZfJGUjoo27W
uS+i5DBmqXUpJr7222P9d+idgmQBpxwrrS77Q9rpUNDnUB4oT0hewKgWE6wI/HQ0
C7t4MAhMi34XKKm+V+vmwcvwYm8x5RpcR81XaoaWMh3Dtl52LOiJh9JKzs3GgNkG
VSdX3OonxhYk4YGFf/5uP/2wP8Z57wP0fjsat8jV3B94B8ePBT5THJEuNOqBhtCG
R3Z+45LvV2wvLaMf/DsjLachVW/BUokigwCfUPpofeVURPn5+4nNf0tubJBQWE3M
vHUUqDo7kKLWQbUlMr3ECmQqX10wSUrgwZ1LNk2auOCaOupwyZSg+bVzhC9d9OGc
EImE4VPk+KSZkPJSoK65tXwVFV4Cor83SupeIeh5UHGS1VnJWkvEv6i3lsdkiuyV
PmfXWCXvTfQoobRJ9fH0PJp5HcPx1+lfxziOTRNX1yLKQjxpf0V9O6245GgIMZDQ
QUNbehAEiZQ+DYF24pkjpSbYAFv+Ah7foVER2/5JAgMBAAEwDQYJKoZIhvcNAQEE
BQADggIBAAuz/dz0LjaRuMVZojBw6cd7JKGjFsbJ8TbOewl48T0GDT8kDwd3RHIy
JvU2BetHWAYoHCpx/+Wb+aIbg5N4sfcSaLA2wntUIjsMAFDY3mhJtPBlwpuJC4NE
CtrKn481OiIfzmjgrf2ahq8nH6dItgRZgK1DwXuOAdhkAHso8/sAWCYm+aIrr+HZ
w2aDk5TspBw/JWnEHt2fcryv9wxTMvKiHxCDe4wsGnQDqp4XHURqQMgI2caiIE/N
TfgH6Al1XjktG+hAJdB7bGH9nsX5JTtAVkW5o0GKlqgrlSsKGsEvv8zfzGxmM+F0
2ZAFG/8XCvaUJJ4kX4k8iM0m22tTrcg/hjlMJOSs7ceHPD4x30R/+Ue20czoE+YG
HCQiOVkY9oIFG/yq0DZW5QAYcJM8KsEuwa09SnK0jPR29/59RWpJsW8GxtXWaibj
tjjcPTIaw2Fsfxuckzy1SupqEC45UetE0hs/ytnE1N6sIGiX14PqjmOrexOko04R
AdCUYO1LgHrBfGv83zl8hxgnKo2Y8OA6YxGAB+W1Ezw6zfNQWNFaoNsZEvuphH/C
hCg8q+n365/g/Hc1pP6dd9nAPKGV6+HTLVMu9frZKP3mUZ1Wsq2Q0n4nsQ262R+9
49BZWCHKeYeaw015t//WkDWxYcV5WUN3WBSLtsE/mtOUBCmw6Zj/
-----END CERTIFICATE-----
