Certificate:
    Data:
        Version: 1 (0x0)
        Serial Number: 1048579 (0x100003)
    Signature Algorithm: md5WithRSAEncryption
        Issuer: O=remsigTest, OU=testDep/emailAddress=tester1@ics.com, L=brno, ST=czechRepublik, C=cz, CN=greatTester
        Validity
            Not Before: Feb 16 11:51:14 2016 GMT
            Not After : Feb 15 11:51:14 2018 GMT
        Subject: C=cz, ST=czechRepublik, O=remsigTest, OU=testDep, CN=sub3
        Subject Public Key Info:
            Public Key Algorithm: rsaEncryption
                Public-Key: (4096 bit)
                Modulus:
                    00:a0:75:4a:3e:c6:2c:c2:42:b2:29:eb:ef:dd:f2:
                    3e:4c:37:ea:f5:68:0b:f5:ab:d6:74:da:4f:05:36:
                    db:b0:35:0e:0b:1d:82:17:97:02:65:52:1e:b9:ae:
                    25:8d:81:88:92:2c:3a:ae:51:d0:55:77:1f:ba:46:
                    84:fb:30:27:25:18:4c:bc:64:56:be:d1:7b:d6:f9:
                    02:36:21:30:6b:17:1e:a8:25:04:53:47:e5:52:4c:
                    c6:66:17:ba:97:d1:0f:0f:fe:d3:d3:bc:81:db:e4:
                    14:98:2b:08:93:8d:32:9e:3b:01:19:95:81:42:cd:
                    bd:4b:bc:df:8c:6e:3f:6d:76:aa:bd:0e:c0:67:2f:
                    41:b2:28:30:0b:ca:18:2d:a0:d3:98:e8:0f:11:03:
                    ec:7a:01:c7:06:cc:b3:d9:57:53:c1:21:d3:db:20:
                    b9:da:f5:cb:8f:95:09:8f:eb:e6:e4:43:92:b9:8d:
                    1e:49:7a:25:5a:d2:63:08:63:34:cc:46:55:18:92:
                    ad:4a:72:32:78:bb:ce:d9:f1:56:2d:6b:67:38:06:
                    19:7c:3c:3a:60:49:f0:bf:1c:e9:fb:d1:05:ff:3f:
                    a7:21:02:fc:ec:88:75:f1:03:a1:96:cc:f1:15:5f:
                    c6:2b:d6:74:8a:75:9b:76:83:1c:f1:9f:8f:4e:b2:
                    46:9e:61:17:f1:f3:40:6a:60:83:c1:01:b7:cc:7e:
                    ab:0d:46:bc:05:1b:fe:65:9a:84:36:70:3d:36:1b:
                    5b:34:70:4f:fd:4b:10:1b:70:df:dc:15:d4:c4:51:
                    b0:88:68:c1:d6:30:45:3c:b9:8a:76:76:2b:cb:f9:
                    b5:61:68:bb:fa:73:79:23:48:5e:4b:c0:39:57:68:
                    b2:00:6d:02:82:f4:3a:19:a6:a0:91:93:97:0f:f5:
                    d6:11:d2:73:7f:80:91:4c:a7:98:d6:6b:8a:82:3f:
                    8b:eb:c6:92:e9:80:a0:eb:06:23:5b:0d:0c:ed:45:
                    76:2a:30:1f:4a:26:49:d1:9f:af:28:f2:4e:de:0f:
                    ac:6a:ba:39:3a:a8:95:34:cf:0f:89:e1:a2:05:53:
                    3c:3b:e7:1d:c2:2f:3b:e5:24:38:c0:bb:c7:48:b3:
                    81:de:6f:73:bf:1c:43:bb:61:6c:66:d7:fe:1f:d9:
                    82:a9:95:39:3c:02:33:e1:18:72:64:fb:a0:78:14:
                    f4:b0:0a:f8:39:4a:8c:f2:f8:01:9b:10:1b:8d:49:
                    4d:d2:6c:99:52:5a:2d:1f:86:b0:95:f0:3b:bb:26:
                    f0:83:ce:c4:70:d6:e4:84:fc:5d:05:40:4d:4c:75:
                    fe:14:fa:8b:5b:59:83:b0:50:8e:0f:e2:07:1e:8e:
                    7d:55:87
                Exponent: 65537 (0x10001)
    Signature Algorithm: md5WithRSAEncryption
         20:2f:15:65:c8:d4:4c:7c:08:ce:4f:2e:25:ec:22:2e:12:26:
         ff:55:ff:db:10:64:50:86:3e:58:ad:60:42:0b:e7:c2:59:dc:
         63:77:8b:3b:35:88:ad:86:38:8f:66:44:b2:aa:ad:2b:34:a3:
         14:af:fc:ef:87:d2:6a:aa:27:60:06:d3:1a:f9:d0:64:6d:04:
         e4:79:a0:a8:99:5c:c4:ba:ca:82:1b:2f:e3:00:90:9b:bc:7f:
         84:ad:ba:be:e0:30:b4:e1:94:f2:41:6b:9b:68:95:b2:b0:ac:
         28:ee:5f:fc:40:7d:00:2c:4d:62:99:c8:75:4c:83:00:ae:6f:
         c2:a5:db:7a:74:d1:31:d3:36:19:5b:d1:b4:92:ef:c8:7c:63:
         ac:51:59:cf:aa:8c:8a:21:32:e7:52:4e:35:2d:35:e2:e6:df:
         35:9b:26:53:21:4c:aa:fe:46:32:af:44:10:40:ce:f8:80:3f:
         fb:3c:00:e7:8b:14:dc:36:5b:02:1a:fd:4f:ed:32:72:6d:d4:
         b0:14:07:13:ee:27:6f:e2:4a:70:d1:ff:b1:ad:5d:b2:d9:69:
         6f:7b:8e:70:4e:fa:77:48:7b:e3:c1:93:34:dc:8e:73:72:f5:
         ca:f5:08:47:89:87:90:9b:c7:64:af:80:57:78:2e:6d:67:33:
         b9:6f:5e:8a:73:e9:d4:2d:45:18:5c:47:60:c9:e4:99:4e:66:
         c9:25:36:a2:da:50:55:4c:89:66:3e:97:8f:ae:d0:a0:ce:61:
         6a:b3:28:5a:4a:c0:da:ff:d0:41:1b:5a:cb:f6:7b:c2:51:13:
         93:04:6d:17:4a:21:fc:46:31:03:72:87:35:3d:fb:33:72:04:
         2a:06:82:e3:0c:e7:9e:70:9d:ac:43:b4:6e:04:03:63:0a:60:
         23:94:ef:12:8b:88:22:d6:25:d7:18:37:78:f7:ed:53:59:ad:
         45:3e:b1:7b:31:a3:bc:2b:88:b4:f8:6e:ba:10:77:70:b5:b3:
         b5:78:01:e9:4a:2e:34:85:e8:1a:e0:cb:c9:a3:95:35:9d:7b:
         bf:83:7c:7d:31:65:c6:4d:08:7b:f9:67:80:7e:95:9c:60:00:
         d7:86:1b:df:34:a6:09:49:d7:51:b3:6d:70:ff:3c:fc:f4:e8:
         6a:95:bb:96:0c:f3:c2:7e:d1:5d:08:80:9f:37:10:a5:a9:47:
         e2:da:1b:42:82:8a:ce:82:37:c5:c0:e3:78:8e:c5:ae:77:97:
         97:83:b6:27:62:c6:7f:a0:df:c9:c7:68:91:9f:59:ae:6d:02:
         43:7a:e9:4f:54:a8:4f:8b:11:23:0b:af:fb:10:fc:c8:39:df:
         4f:3c:92:20:f6:5f:80:ac
-----BEGIN CERTIFICATE-----
MIIFYzCCA0sCAxAAAzANBgkqhkiG9w0BAQQFADCBkTETMBEGA1UEChMKcmVtc2ln
VGVzdDEQMA4GA1UECxMHdGVzdERlcDEeMBwGCSqGSIb3DQEJARYPdGVzdGVyMUBp
Y3MuY29tMQ0wCwYDVQQHEwRicm5vMRYwFAYDVQQIEw1jemVjaFJlcHVibGlrMQsw
CQYDVQQGEwJjejEUMBIGA1UEAxMLZ3JlYXRUZXN0ZXIwHhcNMTYwMjE2MTE1MTE0
WhcNMTgwMjE1MTE1MTE0WjBbMQswCQYDVQQGEwJjejEWMBQGA1UECBMNY3plY2hS
ZXB1YmxpazETMBEGA1UEChMKcmVtc2lnVGVzdDEQMA4GA1UECxMHdGVzdERlcDEN
MAsGA1UEAxMEc3ViMzCCAiIwDQYJKoZIhvcNAQEBBQADggIPADCCAgoCggIBAKB1
Sj7GLMJCsinr793yPkw36vVoC/Wr1nTaTwU227A1DgsdgheXAmVSHrmuJY2BiJIs
Oq5R0FV3H7pGhPswJyUYTLxkVr7Re9b5AjYhMGsXHqglBFNH5VJMxmYXupfRDw/+
09O8gdvkFJgrCJONMp47ARmVgULNvUu834xuP212qr0OwGcvQbIoMAvKGC2g05jo
DxED7HoBxwbMs9lXU8Eh09sgudr1y4+VCY/r5uRDkrmNHkl6JVrSYwhjNMxGVRiS
rUpyMni7ztnxVi1rZzgGGXw8OmBJ8L8c6fvRBf8/pyEC/OyIdfEDoZbM8RVfxivW
dIp1m3aDHPGfj06yRp5hF/HzQGpgg8EBt8x+qw1GvAUb/mWahDZwPTYbWzRwT/1L
EBtw39wV1MRRsIhowdYwRTy5inZ2K8v5tWFou/pzeSNIXkvAOVdosgBtAoL0Ohmm
oJGTlw/11hHSc3+AkUynmNZrioI/i+vGkumAoOsGI1sNDO1FdiowH0omSdGfryjy
Tt4PrGq6OTqolTTPD4nhogVTPDvnHcIvO+UkOMC7x0izgd5vc78cQ7thbGbX/h/Z
gqmVOTwCM+EYcmT7oHgU9LAK+DlKjPL4AZsQG41JTdJsmVJaLR+GsJXwO7sm8IPO
xHDW5IT8XQVATUx1/hT6i1tZg7BQjg/iBx6OfVWHAgMBAAEwDQYJKoZIhvcNAQEE
BQADggIBACAvFWXI1Ex8CM5PLiXsIi4SJv9V/9sQZFCGPlitYEIL58JZ3GN3izs1
iK2GOI9mRLKqrSs0oxSv/O+H0mqqJ2AG0xr50GRtBOR5oKiZXMS6yoIbL+MAkJu8
f4Stur7gMLThlPJBa5tolbKwrCjuX/xAfQAsTWKZyHVMgwCub8Kl23p00THTNhlb
0bSS78h8Y6xRWc+qjIohMudSTjUtNeLm3zWbJlMhTKr+RjKvRBBAzviAP/s8AOeL
FNw2WwIa/U/tMnJt1LAUBxPuJ2/iSnDR/7GtXbLZaW97jnBO+ndIe+PBkzTcjnNy
9cr1CEeJh5Cbx2SvgFd4Lm1nM7lvXopz6dQtRRhcR2DJ5JlOZsklNqLaUFVMiWY+
l4+u0KDOYWqzKFpKwNr/0EEbWsv2e8JRE5MEbRdKIfxGMQNyhzU9+zNyBCoGguMM
555wnaxDtG4EA2MKYCOU7xKLiCLWJdcYN3j37VNZrUU+sXsxo7wriLT4broQd3C1
s7V4AelKLjSF6Brgy8mjlTWde7+DfH0xZcZNCHv5Z4B+lZxgANeGG980pglJ11Gz
bXD/PPz06GqVu5YM88J+0V0IgJ83EKWpR+LaG0KCis6CN8XA43iOxa53l5eDtidi
xn+g38nHaJGfWa5tAkN66U9UqE+LESMLr/sQ/Mg53088kiD2X4Cs
-----END CERTIFICATE-----
