Certificate:
    Data:
        Version: 1 (0x0)
        Serial Number: 1048578 (0x100002)
    Signature Algorithm: md5WithRSAEncryption
        Issuer: O=remsigTest, OU=testDep/emailAddress=tester1@ics.com, L=brno, ST=czechRepublik, C=cz, CN=greatTester
        Validity
            Not Before: Feb 16 11:50:53 2016 GMT
            Not After : Feb 15 11:50:53 2018 GMT
        Subject: C=cz, ST=czechRepublik, O=remsigTest, OU=testDep, CN=sub2
        Subject Public Key Info:
            Public Key Algorithm: rsaEncryption
                Public-Key: (4096 bit)
                Modulus:
                    00:be:b4:f1:a3:08:53:83:6d:ad:47:d1:ca:15:c7:
                    13:85:e1:b5:3d:e2:bf:0f:f0:78:eb:15:1f:e8:2a:
                    1c:3f:be:5f:94:68:4c:f7:eb:35:f2:eb:7b:29:19:
                    7f:b0:b3:58:a4:ad:d0:38:8f:04:d5:74:b9:e9:95:
                    2f:6d:63:1b:f2:e3:bc:aa:b1:84:31:92:41:97:f2:
                    3e:98:b5:f4:72:12:b4:bd:d8:44:23:fb:db:f4:06:
                    25:cd:92:1d:83:07:84:8f:47:3c:e0:cb:98:de:c1:
                    22:73:0f:c8:28:87:41:9a:7b:c2:9b:ef:d5:83:2f:
                    4d:67:ee:5d:9b:33:c4:9d:b8:bd:a3:78:94:dc:2b:
                    e4:a5:6b:38:79:dc:00:f8:63:34:c0:fe:8f:65:a4:
                    90:d9:4b:23:85:a6:29:6f:63:38:07:13:05:cc:87:
                    a2:9e:77:58:f2:8b:54:e7:58:13:77:8a:66:3c:d7:
                    de:d8:aa:01:a9:60:63:ff:49:2e:ed:ad:e2:ac:34:
                    48:dd:9e:49:c1:5c:99:a8:de:fb:91:64:e8:ca:b3:
                    67:5a:7a:7d:16:8f:a0:99:90:ca:bd:22:ca:d5:82:
                    77:c4:d7:99:9b:45:49:94:bf:48:f1:46:3f:25:99:
                    c9:4e:cb:6a:be:26:6a:8d:e9:3e:78:c5:a5:47:ce:
                    82:47:54:7a:06:3b:6f:2f:02:fc:ae:fe:3c:95:00:
                    9f:a2:34:24:dc:9c:0e:79:7e:2e:95:af:44:b3:30:
                    ae:43:6c:2f:74:0d:7a:af:88:b9:79:d6:6f:04:f9:
                    8e:86:0a:c1:71:d3:68:e0:5a:3b:17:98:02:b7:cf:
                    f9:a8:3a:82:18:b1:5f:4a:e8:1e:53:50:54:a2:13:
                    f8:32:c3:94:e9:7c:f8:86:18:11:a6:0c:fe:7a:9b:
                    58:48:b0:13:95:83:2e:98:ed:d2:68:54:50:15:f8:
                    74:a7:7e:66:99:50:b3:6f:55:43:42:39:d6:65:d8:
                    0f:50:79:8a:5b:cb:67:65:47:15:f2:c4:0a:b9:9a:
                    53:35:a9:49:9d:10:b7:58:0e:ab:d3:cd:42:c0:35:
                    bd:3f:5b:9f:56:0c:48:44:32:85:d5:1f:9f:15:31:
                    02:47:d1:c7:5c:11:f5:27:39:1f:d2:54:14:48:04:
                    06:88:10:e6:c5:47:6d:64:5b:82:f7:de:cf:44:69:
                    3d:3a:e8:5b:c6:ca:cb:26:93:38:19:a7:c5:67:57:
                    a9:18:6d:8c:67:24:bf:f1:05:d3:62:e3:d0:db:ac:
                    1d:b9:8f:73:d3:ac:8f:9b:40:4d:ed:1b:9a:9c:1f:
                    18:1c:2f:0f:a9:22:0d:55:22:84:62:e3:31:e0:96:
                    2b:a4:35
                Exponent: 65537 (0x10001)
    Signature Algorithm: md5WithRSAEncryption
         90:fa:ed:48:50:61:d0:15:41:b9:52:04:57:bc:c9:4e:26:d0:
         de:7e:94:dd:74:3e:34:ab:63:70:90:7f:d1:da:8d:7d:b7:b2:
         c6:af:66:3f:fc:a0:b6:55:3a:30:4f:cd:2b:39:67:eb:12:92:
         df:7e:9b:1d:8a:33:5e:a4:94:19:c0:aa:95:8b:e8:cc:11:ad:
         10:4f:a3:f8:59:10:7a:a5:1c:68:0f:c6:81:6f:ea:2a:92:d4:
         5f:0a:ff:64:cb:d1:be:88:b0:ae:cb:8d:cc:2a:ca:86:70:6f:
         59:13:4e:86:18:5b:21:59:8b:e2:81:20:fd:4b:2d:be:3d:fa:
         cf:ab:04:1b:cc:7b:11:64:b9:01:60:6d:a0:b8:95:c6:cd:f5:
         77:51:2f:c2:1c:75:96:39:57:ba:5a:68:c5:e9:70:5c:b7:b9:
         4d:99:a9:9f:d9:61:1d:aa:23:04:fd:20:47:48:b6:54:c8:52:
         46:05:7e:ed:60:2a:f6:28:95:b8:26:62:1f:0e:7a:78:17:e7:
         b7:21:12:e7:23:d4:d0:2c:4e:a7:97:5b:e7:33:d0:c6:ae:09:
         1a:9f:70:36:72:a3:9f:a3:53:f4:e7:a7:0a:03:a6:ba:26:80:
         1c:49:10:e2:8e:d0:7f:d8:d9:68:02:40:c4:f4:ee:9d:6a:3b:
         ee:c2:17:6f:bf:45:c0:0b:57:c2:cd:18:e1:ce:ad:09:77:3b:
         43:8f:aa:83:38:7a:e1:17:cd:f8:39:d1:a3:5a:d6:8d:db:dd:
         66:bd:5d:ae:0b:3b:9a:6b:c5:ee:86:b1:fd:ec:d8:99:ab:f0:
         65:dc:cc:7d:41:d9:42:36:38:7c:a1:64:91:a3:be:2a:65:32:
         84:b4:5f:49:b4:79:70:95:2e:b0:b7:fa:e6:69:1a:18:39:1d:
         d5:28:4e:0f:fb:7d:e3:d8:54:66:fb:ab:66:59:f8:d7:61:f3:
         93:c2:6a:9e:fd:83:8d:e1:8b:d6:d5:4a:1c:e3:95:d3:9b:bc:
         86:49:4f:53:8e:12:5f:c1:d8:fe:52:13:3b:6f:50:40:1a:94:
         cc:4a:bc:79:68:9e:a0:2b:62:c5:03:e6:2b:0f:6c:9a:84:38:
         8b:32:a5:52:ef:1a:1c:06:34:07:71:0f:37:f5:61:3c:86:36:
         e6:73:4b:b3:1b:79:3c:7c:8f:e5:32:69:8b:1e:3f:e2:43:1a:
         4e:d5:45:c1:28:b2:b6:10:a7:8c:29:01:79:1d:4b:00:c8:8b:
         cb:1b:11:0f:45:36:8a:15:d3:4f:0a:1a:8b:3b:e5:86:b4:b5:
         14:69:db:7a:24:9b:3e:cc:fb:87:c6:2a:b0:19:89:e4:56:b9:
         3f:76:cc:2d:50:2c:5b:6d
-----BEGIN CERTIFICATE-----
MIIFYzCCA0sCAxAAAjANBgkqhkiG9w0BAQQFADCBkTETMBEGA1UEChMKcmVtc2ln
VGVzdDEQMA4GA1UECxMHdGVzdERlcDEeMBwGCSqGSIb3DQEJARYPdGVzdGVyMUBp
Y3MuY29tMQ0wCwYDVQQHEwRicm5vMRYwFAYDVQQIEw1jemVjaFJlcHVibGlrMQsw
CQYDVQQGEwJjejEUMBIGA1UEAxMLZ3JlYXRUZXN0ZXIwHhcNMTYwMjE2MTE1MDUz
WhcNMTgwMjE1MTE1MDUzWjBbMQswCQYDVQQGEwJjejEWMBQGA1UECBMNY3plY2hS
ZXB1YmxpazETMBEGA1UEChMKcmVtc2lnVGVzdDEQMA4GA1UECxMHdGVzdERlcDEN
MAsGA1UEAxMEc3ViMjCCAiIwDQYJKoZIhvcNAQEBBQADggIPADCCAgoCggIBAL60
8aMIU4NtrUfRyhXHE4XhtT3ivw/weOsVH+gqHD++X5RoTPfrNfLreykZf7CzWKSt
0DiPBNV0uemVL21jG/LjvKqxhDGSQZfyPpi19HIStL3YRCP72/QGJc2SHYMHhI9H
PODLmN7BInMPyCiHQZp7wpvv1YMvTWfuXZszxJ24vaN4lNwr5KVrOHncAPhjNMD+
j2WkkNlLI4WmKW9jOAcTBcyHop53WPKLVOdYE3eKZjzX3tiqAalgY/9JLu2t4qw0
SN2eScFcmaje+5Fk6MqzZ1p6fRaPoJmQyr0iytWCd8TXmZtFSZS/SPFGPyWZyU7L
ar4mao3pPnjFpUfOgkdUegY7by8C/K7+PJUAn6I0JNycDnl+LpWvRLMwrkNsL3QN
eq+IuXnWbwT5joYKwXHTaOBaOxeYArfP+ag6ghixX0roHlNQVKIT+DLDlOl8+IYY
EaYM/nqbWEiwE5WDLpjt0mhUUBX4dKd+ZplQs29VQ0I51mXYD1B5ilvLZ2VHFfLE
CrmaUzWpSZ0Qt1gOq9PNQsA1vT9bn1YMSEQyhdUfnxUxAkfRx1wR9Sc5H9JUFEgE
BogQ5sVHbWRbgvfez0RpPTroW8bKyyaTOBmnxWdXqRhtjGckv/EF02Lj0NusHbmP
c9Osj5tATe0bmpwfGBwvD6kiDVUihGLjMeCWK6Q1AgMBAAEwDQYJKoZIhvcNAQEE
BQADggIBAJD67UhQYdAVQblSBFe8yU4m0N5+lN10PjSrY3CQf9HajX23ssavZj/8
oLZVOjBPzSs5Z+sSkt9+mx2KM16klBnAqpWL6MwRrRBPo/hZEHqlHGgPxoFv6iqS
1F8K/2TL0b6IsK7LjcwqyoZwb1kTToYYWyFZi+KBIP1LLb49+s+rBBvMexFkuQFg
baC4lcbN9XdRL8IcdZY5V7paaMXpcFy3uU2ZqZ/ZYR2qIwT9IEdItlTIUkYFfu1g
KvYolbgmYh8OengX57chEucj1NAsTqeXW+cz0MauCRqfcDZyo5+jU/TnpwoDprom
gBxJEOKO0H/Y2WgCQMT07p1qO+7CF2+/RcALV8LNGOHOrQl3O0OPqoM4euEXzfg5
0aNa1o3b3Wa9Xa4LO5prxe6Gsf3s2Jmr8GXczH1B2UI2OHyhZJGjviplMoS0X0m0
eXCVLrC3+uZpGhg5HdUoTg/7fePYVGb7q2ZZ+Ndh85PCap79g43hi9bVShzjldOb
vIZJT1OOEl/B2P5SEztvUEAalMxKvHlonqArYsUD5isPbJqEOIsypVLvGhwGNAdx
Dzf1YTyGNuZzS7MbeTx8j+UyaYseP+JDGk7VRcEosrYQp4wpAXkdSwDIi8sbEQ9F
NooV008KGos75Ya0tRRp23okmz7M+4fGKrAZieRWuT92zC1QLFtt
-----END CERTIFICATE-----
